target datalayout = "e-m:e-p270:32:32-p271:32:32-p272:64:64-i64:64-i128:128-f80:128-n8:16:32:64-S128"
target triple = "x86_64-pc-linux-gnu"

%"class.std::__cxx11::basic_string" = type { %"struct.std::__cxx11::basic_string<char>::_Alloc_hider", i64, %union.anon }
%"struct.std::__cxx11::basic_string<char>::_Alloc_hider" = type { ptr }
%union.anon = type { i64, [8 x i8] }
%"class.std::optional" = type { %"struct.std::_Optional_base" }
%"struct.std::_Optional_base" = type { %"struct.std::_Optional_payload" }
%"struct.std::_Optional_payload" = type { %"struct.std::_Optional_payload_base.base", [3 x i8] }
%"struct.std::_Optional_payload_base.base" = type <{ %"union.std::_Optional_payload_base<cmCTestTypes::TruncationMode>::_Storage", i8 }>
%"union.std::_Optional_payload_base<cmCTestTypes::TruncationMode>::_Storage" = type { i32 }
%"struct.std::_Optional_payload_base" = type <{ %"union.std::_Optional_payload_base<cmCTestTypes::TruncationMode>::_Storage", i8, [3 x i8] }>

@.str.70 = private unnamed_addr constant [5 x i8] c"tail\00", align 1
@.str.71 = private unnamed_addr constant [7 x i8] c"middle\00", align 1
@.str.72 = private unnamed_addr constant [5 x i8] c"head\00", align 1

; Function Attrs: mustprogress nounwind uwtable
define linkonce_odr dso_local void @_ZNSt22_Optional_payload_baseIN12cmCTestTypes14TruncationModeEE8_StorageIS1_Lb1EEC2IJS1_EEESt10in_place_tDpOT_(ptr noundef nonnull align 4 dereferenceable(4) %0, ptr noundef nonnull align 4 dereferenceable(4) %1) unnamed_addr #4 comdat align 2 {
  %3 = alloca ptr, align 8
  %4 = alloca ptr, align 8
  store ptr %0, ptr %3, align 8
  store ptr %1, ptr %4, align 8
  %5 = load ptr, ptr %3, align 8
  %6 = load ptr, ptr %4, align 8
  %7 = load i32, ptr %6, align 4
  store i32 %7, ptr %5, align 4
  ret void
}

; Function Attrs: mustprogress uwtable
define linkonce_odr dso_local void @_ZNSt22_Optional_payload_baseIN12cmCTestTypes14TruncationModeEEC2IJS1_EEESt10in_place_tDpOT_(ptr noundef nonnull align 4 dereferenceable(5) %0, ptr noundef nonnull align 4 dereferenceable(4) %1) unnamed_addr #5 comdat align 2 {
  %3 = alloca ptr, align 8
  %4 = alloca ptr, align 8
  store ptr %0, ptr %3, align 8
  store ptr %1, ptr %4, align 8
  %5 = load ptr, ptr %3, align 8
  %6 = getelementptr inbounds %"struct.std::_Optional_payload_base", ptr %5, i32 0, i32 0
  %7 = load ptr, ptr %4, align 8
  call void @_ZNSt22_Optional_payload_baseIN12cmCTestTypes14TruncationModeEE8_StorageIS1_Lb1EEC2IJS1_EEESt10in_place_tDpOT_(ptr noundef nonnull align 4 dereferenceable(4) %6, ptr noundef nonnull align 4 dereferenceable(4) %7)
  %8 = getelementptr inbounds %"struct.std::_Optional_payload_base", ptr %5, i32 0, i32 1
  store i8 1, ptr %8, align 4
  ret void
}

; Function Attrs: mustprogress nounwind uwtable
define linkonce_odr dso_local void @_ZNSt22_Optional_payload_baseIN12cmCTestTypes14TruncationModeEE10_M_destroyEv(ptr noundef nonnull align 4 dereferenceable(5) %0) #4 comdat align 2 {
  %2 = alloca ptr, align 8
  store ptr %0, ptr %2, align 8
  %3 = load ptr, ptr %2, align 8
  %4 = getelementptr inbounds %"struct.std::_Optional_payload_base", ptr %3, i32 0, i32 1
  store i8 0, ptr %4, align 4
  ret void
}

; Function Attrs: mustprogress uwtable
define linkonce_odr dso_local void @_ZNSt17_Optional_payloadIN12cmCTestTypes14TruncationModeELb1ELb1ELb1EECI2St22_Optional_payload_baseIS1_EIJS1_EEESt10in_place_tDpOT_(ptr noundef nonnull align 4 dereferenceable(5) %0, ptr noundef nonnull align 4 dereferenceable(4) %1) unnamed_addr #5 comdat align 2 {
  %3 = alloca ptr, align 8
  %4 = alloca ptr, align 8
  store ptr %0, ptr %3, align 8
  store ptr %1, ptr %4, align 8
  %5 = load ptr, ptr %3, align 8
  %6 = load ptr, ptr %4, align 8
  call void @_ZNSt22_Optional_payload_baseIN12cmCTestTypes14TruncationModeEEC2IJS1_EEESt10in_place_tDpOT_(ptr noundef nonnull align 4 dereferenceable(5) %5, ptr noundef nonnull align 4 dereferenceable(4) %6)
  ret void
}

; Function Attrs: mustprogress nounwind uwtable
define linkonce_odr dso_local void @_ZNSt22_Optional_payload_baseIN12cmCTestTypes14TruncationModeEE8_M_resetEv(ptr noundef nonnull align 4 dereferenceable(5) %0) #4 comdat align 2 {
  %2 = alloca ptr, align 8
  store ptr %0, ptr %2, align 8
  %3 = load ptr, ptr %2, align 8
  %4 = getelementptr inbounds %"struct.std::_Optional_payload_base", ptr %3, i32 0, i32 1
  %5 = load i8, ptr %4, align 4
  %6 = trunc i8 %5 to i1
  br i1 %6, label %7, label %8

7:                                                ; preds = %1
  call void @_ZNSt22_Optional_payload_baseIN12cmCTestTypes14TruncationModeEE10_M_destroyEv(ptr noundef nonnull align 4 dereferenceable(5) %3) #3
  br label %8

8:                                                ; preds = %7, %1
  ret void
}

; Function Attrs: noreturn nounwind uwtable
define linkonce_odr hidden void @__clang_call_terminate(ptr noundef %0) #6 comdat {
  %2 = call ptr @__cxa_begin_catch(ptr %0) #3
  call void @_ZSt9terminatev() #14
  unreachable
}

; Function Attrs: mustprogress uwtable
define linkonce_odr dso_local void @_ZNSt14_Optional_baseIN12cmCTestTypes14TruncationModeELb1ELb1EEC2IJS1_ETnNSt9enable_ifIX18is_constructible_vIS1_DpT_EEbE4typeELb0EEESt10in_place_tDpOS5_(ptr noundef nonnull align 4 dereferenceable(8) %0, ptr noundef nonnull align 4 dereferenceable(4) %1) unnamed_addr #5 comdat align 2 {
  %3 = alloca ptr, align 8
  %4 = alloca ptr, align 8
  store ptr %0, ptr %3, align 8
  store ptr %1, ptr %4, align 8
  %5 = load ptr, ptr %3, align 8
  %6 = getelementptr inbounds %"struct.std::_Optional_base", ptr %5, i32 0, i32 0
  %7 = load ptr, ptr %4, align 8
  call void @_ZNSt17_Optional_payloadIN12cmCTestTypes14TruncationModeELb1ELb1ELb1EECI2St22_Optional_payload_baseIS1_EIJS1_EEESt10in_place_tDpOT_(ptr noundef nonnull align 4 dereferenceable(5) %6, ptr noundef nonnull align 4 dereferenceable(4) %7)
  ret void
}

; Function Attrs: mustprogress nounwind uwtable
define linkonce_odr dso_local void @_ZNSt19_Optional_base_implIN12cmCTestTypes14TruncationModeESt14_Optional_baseIS1_Lb1ELb1EEE8_M_resetEv(ptr noundef nonnull align 1 dereferenceable(1) %0) #4 comdat align 2 {
  %2 = alloca ptr, align 8
  store ptr %0, ptr %2, align 8
  %3 = load ptr, ptr %2, align 8
  %4 = getelementptr inbounds %"struct.std::_Optional_base", ptr %3, i32 0, i32 0
  call void @_ZNSt22_Optional_payload_baseIN12cmCTestTypes14TruncationModeEE8_M_resetEv(ptr noundef nonnull align 4 dereferenceable(5) %4) #3
  ret void
}

; Function Attrs: mustprogress nounwind uwtable
define linkonce_odr dso_local void @_ZNSt8optionalIN12cmCTestTypes14TruncationModeEEC2IS1_TnNSt9enable_ifIX7__and_vISt6__not_ISt7is_sameIS2_NSt9remove_cvINSt16remove_referenceIT_E4typeEE4typeEEES5_IS6_ISt10in_place_tSD_EESt16is_constructibleIS1_JS9_EESt14is_convertibleIS9_S1_EEEbE4typeELb1EEEOS9_(ptr noundef nonnull align 4 dereferenceable(8) %0, ptr noundef nonnull align 4 dereferenceable(4) %1) unnamed_addr #4 comdat align 2 personality ptr @__gxx_personality_v0 {
  %3 = alloca ptr, align 8
  %4 = alloca ptr, align 8
  store ptr %0, ptr %3, align 8
  store ptr %1, ptr %4, align 8
  %5 = load ptr, ptr %3, align 8
  %6 = load ptr, ptr %4, align 8
  invoke void @_ZNSt14_Optional_baseIN12cmCTestTypes14TruncationModeELb1ELb1EEC2IJS1_ETnNSt9enable_ifIX18is_constructible_vIS1_DpT_EEbE4typeELb0EEESt10in_place_tDpOS5_(ptr noundef nonnull align 4 dereferenceable(8) %5, ptr noundef nonnull align 4 dereferenceable(4) %6)
          to label %7 unwind label %8

7:                                                ; preds = %2
  ret void

8:                                                ; preds = %2
  %9 = landingpad { ptr, i32 }
          catch ptr null
  %10 = extractvalue { ptr, i32 } %9, 0
  call void @__clang_call_terminate(ptr %10) #14
  unreachable
}

; Function Attrs: mustprogress nounwind uwtable
define linkonce_odr dso_local noundef zeroext i1 @_ZSteqIcSt11char_traitsIcESaIcEEbRKNSt7__cxx1112basic_stringIT_T0_T1_EEPKS5_(ptr noundef nonnull align 8 dereferenceable(32) %0, ptr noundef %1) #4 comdat {
  %3 = alloca ptr, align 8
  %4 = alloca ptr, align 8
  store ptr %0, ptr %3, align 8
  store ptr %1, ptr %4, align 8
  %5 = load ptr, ptr %3, align 8
  %6 = load ptr, ptr %4, align 8
  %7 = call noundef i32 @_ZNKSt7__cxx1112basic_stringIcSt11char_traitsIcESaIcEE7compareEPKc(ptr noundef nonnull align 8 dereferenceable(32) %5, ptr noundef %6) #3
  %8 = icmp eq i32 %7, 0
  ret i1 %8
}

; Function Attrs: mustprogress nounwind uwtable
define linkonce_odr dso_local noundef nonnull align 4 dereferenceable(8) ptr @_ZNSt8optionalIN12cmCTestTypes14TruncationModeEEaSESt9nullopt_t(ptr noundef nonnull align 4 dereferenceable(8) %0) #4 comdat align 2 {
  %2 = alloca ptr, align 8
  store ptr %0, ptr %2, align 8
  %3 = load ptr, ptr %2, align 8
  call void @_ZNSt19_Optional_base_implIN12cmCTestTypes14TruncationModeESt14_Optional_baseIS1_Lb1ELb1EEE8_M_resetEv(ptr noundef nonnull align 1 dereferenceable(1) %3) #3
  ret ptr %3
}

; Function Attrs: mustprogress uwtable
define internal noundef zeroext i1 @_ZN12_GLOBAL__N_132TestPresetOutputTruncationHelperERSt8optionalIN12cmCTestTypes14TruncationModeEEPKN4Json5ValueEP11cmJSONState(ptr noundef nonnull align 4 dereferenceable(8) %0, ptr noundef %1, ptr noundef %2) #5 {
  %4 = alloca i1, align 1
  %5 = alloca ptr, align 8
  %6 = alloca ptr, align 8
  %7 = alloca ptr, align 8
  %8 = alloca %"class.std::__cxx11::basic_string", align 8
  %9 = alloca %"class.std::optional", align 4
  %10 = alloca i32, align 4
  %11 = alloca %"class.std::__cxx11::basic_string", align 8
  %12 = alloca %"class.std::optional", align 4
  %13 = alloca i32, align 4
  %14 = alloca %"class.std::__cxx11::basic_string", align 8
  %15 = alloca %"class.std::optional", align 4
  %16 = alloca i32, align 4
  store ptr %0, ptr %5, align 8
  store ptr %1, ptr %6, align 8
  store ptr %2, ptr %7, align 8
  %17 = load ptr, ptr %6, align 8
  %18 = icmp ne ptr %17, null
  br i1 %18, label %22, label %19

19:                                               ; preds = %3
  %20 = load ptr, ptr %5, align 8
  %21 = call noundef nonnull align 4 dereferenceable(8) ptr @_ZNSt8optionalIN12cmCTestTypes14TruncationModeEEaSESt9nullopt_t(ptr noundef nonnull align 4 dereferenceable(8) %20) #3
  store i1 true, ptr %4, align 1
  br label %46

22:                                               ; preds = %3
  %23 = load ptr, ptr %6, align 8
  %24 = call noundef zeroext i1 @_ZNK4Json5Value8isStringEv(ptr noundef nonnull align 8 dereferenceable(40) %23)
  br i1 %24, label %28, label %25

25:                                               ; preds = %22
  %26 = load ptr, ptr %6, align 8
  %27 = load ptr, ptr %7, align 8
  call void @_ZN20cmCMakePresetsErrors14INVALID_PRESETEPKN4Json5ValueEP11cmJSONState(ptr noundef %26, ptr noundef %27)
  store i1 false, ptr %4, align 1
  br label %46

28:                                               ; preds = %22
  %29 = load ptr, ptr %6, align 8
  call void @_ZNK4Json5Value8asStringB5cxx11Ev(ptr dead_on_unwind writable sret(%"class.std::__cxx11::basic_string") align 8 %8, ptr noundef nonnull align 8 dereferenceable(40) %29)
  %30 = call noundef zeroext i1 @_ZSteqIcSt11char_traitsIcESaIcEEbRKNSt7__cxx1112basic_stringIT_T0_T1_EEPKS5_(ptr noundef nonnull align 8 dereferenceable(32) %8, ptr noundef @.str.70)
  call void @_ZNSt7__cxx1112basic_stringIcSt11char_traitsIcESaIcEED1Ev(ptr noundef nonnull align 8 dereferenceable(32) %8) #3
  br i1 %30, label %31, label %33

31:                                               ; preds = %28
  store i32 0, ptr %10, align 4
  call void @_ZNSt8optionalIN12cmCTestTypes14TruncationModeEEC2IS1_TnNSt9enable_ifIX7__and_vISt6__not_ISt7is_sameIS2_NSt9remove_cvINSt16remove_referenceIT_E4typeEE4typeEEES5_IS6_ISt10in_place_tSD_EESt16is_constructibleIS1_JS9_EESt14is_convertibleIS9_S1_EEEbE4typeELb1EEEOS9_(ptr noundef nonnull align 4 dereferenceable(8) %9, ptr noundef nonnull align 4 dereferenceable(4) %10) #3
  %32 = load ptr, ptr %5, align 8
  call void @llvm.memcpy.p0.p0.i64(ptr align 4 %32, ptr align 4 %9, i64 8, i1 false)
  store i1 true, ptr %4, align 1
  br label %46

33:                                               ; preds = %28
  %34 = load ptr, ptr %6, align 8
  call void @_ZNK4Json5Value8asStringB5cxx11Ev(ptr dead_on_unwind writable sret(%"class.std::__cxx11::basic_string") align 8 %11, ptr noundef nonnull align 8 dereferenceable(40) %34)
  %35 = call noundef zeroext i1 @_ZSteqIcSt11char_traitsIcESaIcEEbRKNSt7__cxx1112basic_stringIT_T0_T1_EEPKS5_(ptr noundef nonnull align 8 dereferenceable(32) %11, ptr noundef @.str.71)
  call void @_ZNSt7__cxx1112basic_stringIcSt11char_traitsIcESaIcEED1Ev(ptr noundef nonnull align 8 dereferenceable(32) %11) #3
  br i1 %35, label %36, label %38

36:                                               ; preds = %33
  store i32 1, ptr %13, align 4
  call void @_ZNSt8optionalIN12cmCTestTypes14TruncationModeEEC2IS1_TnNSt9enable_ifIX7__and_vISt6__not_ISt7is_sameIS2_NSt9remove_cvINSt16remove_referenceIT_E4typeEE4typeEEES5_IS6_ISt10in_place_tSD_EESt16is_constructibleIS1_JS9_EESt14is_convertibleIS9_S1_EEEbE4typeELb1EEEOS9_(ptr noundef nonnull align 4 dereferenceable(8) %12, ptr noundef nonnull align 4 dereferenceable(4) %13) #3
  %37 = load ptr, ptr %5, align 8
  call void @llvm.memcpy.p0.p0.i64(ptr align 4 %37, ptr align 4 %12, i64 8, i1 false)
  store i1 true, ptr %4, align 1
  br label %46

38:                                               ; preds = %33
  %39 = load ptr, ptr %6, align 8
  call void @_ZNK4Json5Value8asStringB5cxx11Ev(ptr dead_on_unwind writable sret(%"class.std::__cxx11::basic_string") align 8 %14, ptr noundef nonnull align 8 dereferenceable(40) %39)
  %40 = call noundef zeroext i1 @_ZSteqIcSt11char_traitsIcESaIcEEbRKNSt7__cxx1112basic_stringIT_T0_T1_EEPKS5_(ptr noundef nonnull align 8 dereferenceable(32) %14, ptr noundef @.str.72)
  call void @_ZNSt7__cxx1112basic_stringIcSt11char_traitsIcESaIcEED1Ev(ptr noundef nonnull align 8 dereferenceable(32) %14) #3
  br i1 %40, label %41, label %43

41:                                               ; preds = %38
  store i32 2, ptr %16, align 4
  call void @_ZNSt8optionalIN12cmCTestTypes14TruncationModeEEC2IS1_TnNSt9enable_ifIX7__and_vISt6__not_ISt7is_sameIS2_NSt9remove_cvINSt16remove_referenceIT_E4typeEE4typeEEES5_IS6_ISt10in_place_tSD_EESt16is_constructibleIS1_JS9_EESt14is_convertibleIS9_S1_EEEbE4typeELb1EEEOS9_(ptr noundef nonnull align 4 dereferenceable(8) %15, ptr noundef nonnull align 4 dereferenceable(4) %16) #3
  %42 = load ptr, ptr %5, align 8
  call void @llvm.memcpy.p0.p0.i64(ptr align 4 %42, ptr align 4 %15, i64 8, i1 false)
  store i1 true, ptr %4, align 1
  br label %46

43:                                               ; preds = %38
  %44 = load ptr, ptr %6, align 8
  %45 = load ptr, ptr %7, align 8
  call void @_ZN20cmCMakePresetsErrors14INVALID_PRESETEPKN4Json5ValueEP11cmJSONState(ptr noundef %44, ptr noundef %45)
  store i1 false, ptr %4, align 1
  br label %46

46:                                               ; preds = %43, %41, %36, %31, %25, %19
  %47 = load i1, ptr %4, align 1
  ret i1 %47
}